; Function Attrs: nounwind uwtable
define void @duckdb_je_tsd_postfork_child(ptr noundef %0) local_unnamed_addr #0 {
  tail call void @duckdb_je_malloc_mutex_postfork_child(ptr noundef %0, ptr noundef nonnull @tsd_nominal_tsds_lock) #7
  store ptr null, ptr @tsd_nominal_tsds.0, align 8, !tbaa !15
  %2 = getelementptr inbounds nuw i8, ptr %0, i64 824
  %3 = load i8, ptr %2, align 8, !tbaa !43
  %4 = icmp ult i8 %3, 3
  br i1 %4, label %5, label %29

5:                                                ; preds = %1
  %6 = getelementptr inbounds nuw i8, ptr %0, i64 200
  store ptr %0, ptr %6, align 8, !tbaa !19
  %7 = getelementptr inbounds nuw i8, ptr %0, i64 208
  store ptr %0, ptr %7, align 8, !tbaa !47
  %8 = tail call i32 @pthread_mutex_trylock(ptr noundef nonnull getelementptr inbounds nuw (i8, ptr @tsd_nominal_tsds_lock, i64 72)) #7
  %.not.i.i = icmp eq i32 %8, 0
  br i1 %.not.i.i, label %10, label %9

9:                                                ; preds = %5
  tail call void @duckdb_je_malloc_mutex_lock_slow(ptr noundef nonnull @tsd_nominal_tsds_lock) #7
  store atomic i8 1, ptr getelementptr inbounds nuw (i8, ptr @tsd_nominal_tsds_lock, i64 64) monotonic, align 8
  br label %10

10:                                               ; preds = %9, %5
  %11 = load i64, ptr getelementptr inbounds nuw (i8, ptr @tsd_nominal_tsds_lock, i64 56), align 8, !tbaa !3
  %12 = add i64 %11, 1
  store i64 %12, ptr getelementptr inbounds nuw (i8, ptr @tsd_nominal_tsds_lock, i64 56), align 8, !tbaa !3
  %13 = load ptr, ptr getelementptr inbounds nuw (i8, ptr @tsd_nominal_tsds_lock, i64 48), align 8, !tbaa !13
  %.not.i.i.i = icmp eq ptr %13, %0
  br i1 %.not.i.i.i, label %malloc_mutex_lock.exit.i, label %14

14:                                               ; preds = %10
  store ptr %0, ptr getelementptr inbounds nuw (i8, ptr @tsd_nominal_tsds_lock, i64 48), align 8, !tbaa !13
  %15 = load i64, ptr getelementptr inbounds nuw (i8, ptr @tsd_nominal_tsds_lock, i64 40), align 8, !tbaa !14
  %16 = add i64 %15, 1
  store i64 %16, ptr getelementptr inbounds nuw (i8, ptr @tsd_nominal_tsds_lock, i64 40), align 8, !tbaa !14
  br label %malloc_mutex_lock.exit.i

malloc_mutex_lock.exit.i:                         ; preds = %14, %10
  %17 = load ptr, ptr @tsd_nominal_tsds.0, align 8, !tbaa !15
  %18 = icmp eq ptr %17, null
  br i1 %18, label %tsd_add_nominal.exit, label %19

19:                                               ; preds = %malloc_mutex_lock.exit.i
  %20 = getelementptr inbounds nuw i8, ptr %17, i64 208
  %21 = load ptr, ptr %20, align 8, !tbaa !47
  %22 = load ptr, ptr %7, align 8, !tbaa !47
  %23 = getelementptr inbounds nuw i8, ptr %22, i64 200
  store ptr %21, ptr %23, align 8, !tbaa !19
  store ptr %22, ptr %20, align 8, !tbaa !47
  store ptr %21, ptr %7, align 8, !tbaa !47
  %24 = load ptr, ptr %20, align 8, !tbaa !47
  %25 = getelementptr inbounds nuw i8, ptr %24, i64 200
  store ptr %17, ptr %25, align 8, !tbaa !19
  %26 = getelementptr inbounds nuw i8, ptr %21, i64 200
  store ptr %0, ptr %26, align 8, !tbaa !19
  br label %tsd_add_nominal.exit

tsd_add_nominal.exit:                             ; preds = %malloc_mutex_lock.exit.i, %19
  %27 = load ptr, ptr %6, align 8, !tbaa !19
  store ptr %27, ptr @tsd_nominal_tsds.0, align 8, !tbaa !15
  store atomic i8 0, ptr getelementptr inbounds nuw (i8, ptr @tsd_nominal_tsds_lock, i64 64) monotonic, align 8
  %28 = tail call i32 @pthread_mutex_unlock(ptr noundef nonnull getelementptr inbounds nuw (i8, ptr @tsd_nominal_tsds_lock, i64 72)) #7
  br label %29

29:                                               ; preds = %tsd_add_nominal.exit, %1
  ret void
}